; ModuleID = '24/912.c'
source_filename = "24/912.c"
target datalayout = "e-m:e-p270:32:32-p271:32:32-p272:64:64-i64:64-f80:128-n8:16:32:64-S128"
target triple = "x86_64-pc-linux-gnu"

@.str = private unnamed_addr constant [4 x i8] c"%s\0A\00", align 1

; Function Attrs: noinline nounwind uwtable
define dso_local i32 @main() #0 {
  %1 = alloca i32, align 4
  %2 = alloca [5000 x i8], align 16
  %3 = alloca [50 x [100 x i8]], align 16
  %4 = alloca i32, align 4
  %5 = alloca i32, align 4
  %6 = alloca i32, align 4
  %7 = alloca i32, align 4
  %8 = alloca i32, align 4
  %9 = alloca i32, align 4
  %10 = alloca i32, align 4
  store i32 0, i32* %1, align 4
  store i32 0, i32* %9, align 4
  store i32 0, i32* %10, align 4
  %11 = getelementptr inbounds [5000 x i8], [5000 x i8]* %2, i64 0, i64 0
  %12 = call i32 (i8*, ...) bitcast (i32 (...)* @gets to i32 (i8*, ...)*)(i8* %11)
  store i32 0, i32* %4, align 4
  store i32 0, i32* %6, align 4
  store i32 0, i32* %5, align 4
  br label %13

13:                                               ; preds = %49, %0
  %14 = load i32, i32* %4, align 4
  %15 = sext i32 %14 to i64
  %16 = getelementptr inbounds [5000 x i8], [5000 x i8]* %2, i64 0, i64 %15
  %17 = load i8, i8* %16, align 1
  %18 = sext i8 %17 to i32
  %19 = icmp ne i32 %18, 0
  br i1 %19, label %20, label %52

20:                                               ; preds = %13
  %21 = load i32, i32* %4, align 4
  %22 = sext i32 %21 to i64
  %23 = getelementptr inbounds [5000 x i8], [5000 x i8]* %2, i64 0, i64 %22
  %24 = load i8, i8* %23, align 1
  %25 = sext i8 %24 to i32
  %26 = icmp eq i32 %25, 32
  br i1 %26, label %27, label %36

27:                                               ; preds = %20
  %28 = load i32, i32* %6, align 4
  %29 = sext i32 %28 to i64
  %30 = getelementptr inbounds [50 x [100 x i8]], [50 x [100 x i8]]* %3, i64 0, i64 %29
  %31 = load i32, i32* %5, align 4
  %32 = sext i32 %31 to i64
  %33 = getelementptr inbounds [100 x i8], [100 x i8]* %30, i64 0, i64 %32
  store i8 0, i8* %33, align 1
  %34 = load i32, i32* %6, align 4
  %35 = add nsw i32 %34, 1
  store i32 %35, i32* %6, align 4
  store i32 0, i32* %5, align 4
  br label %49

36:                                               ; preds = %20
  %37 = load i32, i32* %4, align 4
  %38 = sext i32 %37 to i64
  %39 = getelementptr inbounds [5000 x i8], [5000 x i8]* %2, i64 0, i64 %38
  %40 = load i8, i8* %39, align 1
  %41 = load i32, i32* %6, align 4
  %42 = sext i32 %41 to i64
  %43 = getelementptr inbounds [50 x [100 x i8]], [50 x [100 x i8]]* %3, i64 0, i64 %42
  %44 = load i32, i32* %5, align 4
  %45 = sext i32 %44 to i64
  %46 = getelementptr inbounds [100 x i8], [100 x i8]* %43, i64 0, i64 %45
  store i8 %40, i8* %46, align 1
  %47 = load i32, i32* %5, align 4
  %48 = add nsw i32 %47, 1
  store i32 %48, i32* %5, align 4
  br label %49

49:                                               ; preds = %36, %27
  %50 = load i32, i32* %4, align 4
  %51 = add nsw i32 %50, 1
  store i32 %51, i32* %4, align 4
  br label %13

52:                                               ; preds = %13
  %53 = load i32, i32* %6, align 4
  %54 = sext i32 %53 to i64
  %55 = getelementptr inbounds [50 x [100 x i8]], [50 x [100 x i8]]* %3, i64 0, i64 %54
  %56 = load i32, i32* %5, align 4
  %57 = sext i32 %56 to i64
  %58 = getelementptr inbounds [100 x i8], [100 x i8]* %55, i64 0, i64 %57
  store i8 0, i8* %58, align 1
  %59 = getelementptr inbounds [50 x [100 x i8]], [50 x [100 x i8]]* %3, i64 0, i64 0
  %60 = getelementptr inbounds [100 x i8], [100 x i8]* %59, i64 0, i64 0
  %61 = call i64 @strlen(i8* %60) #3
  %62 = trunc i64 %61 to i32
  store i32 %62, i32* %7, align 4
  %63 = getelementptr inbounds [50 x [100 x i8]], [50 x [100 x i8]]* %3, i64 0, i64 0
  %64 = getelementptr inbounds [100 x i8], [100 x i8]* %63, i64 0, i64 0
  %65 = call i64 @strlen(i8* %64) #3
  %66 = trunc i64 %65 to i32
  store i32 %66, i32* %8, align 4
  store i32 0, i32* %4, align 4
  br label %67

67:                                               ; preds = %106, %52
  %68 = load i32, i32* %4, align 4
  %69 = load i32, i32* %6, align 4
  %70 = icmp sle i32 %68, %69
  br i1 %70, label %71, label %109

71:                                               ; preds = %67
  %72 = load i32, i32* %7, align 4
  %73 = load i32, i32* %4, align 4
  %74 = sext i32 %73 to i64
  %75 = getelementptr inbounds [50 x [100 x i8]], [50 x [100 x i8]]* %3, i64 0, i64 %74
  %76 = getelementptr inbounds [100 x i8], [100 x i8]* %75, i64 0, i64 0
  %77 = call i64 @strlen(i8* %76) #3
  %78 = trunc i64 %77 to i32
  %79 = icmp slt i32 %72, %78
  br i1 %79, label %80, label %88

80:                                               ; preds = %71
  %81 = load i32, i32* %4, align 4
  %82 = sext i32 %81 to i64
  %83 = getelementptr inbounds [50 x [100 x i8]], [50 x [100 x i8]]* %3, i64 0, i64 %82
  %84 = getelementptr inbounds [100 x i8], [100 x i8]* %83, i64 0, i64 0
  %85 = call i64 @strlen(i8* %84) #3
  %86 = trunc i64 %85 to i32
  store i32 %86, i32* %7, align 4
  %87 = load i32, i32* %4, align 4
  store i32 %87, i32* %9, align 4
  br label %88

88:                                               ; preds = %80, %71
  %89 = load i32, i32* %8, align 4
  %90 = load i32, i32* %4, align 4
  %91 = sext i32 %90 to i64
  %92 = getelementptr inbounds [50 x [100 x i8]], [50 x [100 x i8]]* %3, i64 0, i64 %91
  %93 = getelementptr inbounds [100 x i8], [100 x i8]* %92, i64 0, i64 0
  %94 = call i64 @strlen(i8* %93) #3
  %95 = trunc i64 %94 to i32
  %96 = icmp sgt i32 %89, %95
  br i1 %96, label %97, label %105

97:                                               ; preds = %88
  %98 = load i32, i32* %4, align 4
  %99 = sext i32 %98 to i64
  %100 = getelementptr inbounds [50 x [100 x i8]], [50 x [100 x i8]]* %3, i64 0, i64 %99
  %101 = getelementptr inbounds [100 x i8], [100 x i8]* %100, i64 0, i64 0
  %102 = call i64 @strlen(i8* %101) #3
  %103 = trunc i64 %102 to i32
  store i32 %103, i32* %8, align 4
  %104 = load i32, i32* %4, align 4
  store i32 %104, i32* %10, align 4
  br label %105

105:                                              ; preds = %97, %88
  br label %106

106:                                              ; preds = %105
  %107 = load i32, i32* %4, align 4
  %108 = add nsw i32 %107, 1
  store i32 %108, i32* %4, align 4
  br label %67

109:                                              ; preds = %67
  %110 = load i32, i32* %9, align 4
  %111 = sext i32 %110 to i64
  %112 = getelementptr inbounds [50 x [100 x i8]], [50 x [100 x i8]]* %3, i64 0, i64 %111
  %113 = getelementptr inbounds [100 x i8], [100 x i8]* %112, i64 0, i64 0
  %114 = call i32 (i8*, ...) @printf(i8* getelementptr inbounds ([4 x i8], [4 x i8]* @.str, i64 0, i64 0), i8* %113)
  %115 = load i32, i32* %10, align 4
  %116 = sext i32 %115 to i64
  %117 = getelementptr inbounds [50 x [100 x i8]], [50 x [100 x i8]]* %3, i64 0, i64 %116
  %118 = getelementptr inbounds [100 x i8], [100 x i8]* %117, i64 0, i64 0
  %119 = call i32 (i8*, ...) @printf(i8* getelementptr inbounds ([4 x i8], [4 x i8]* @.str, i64 0, i64 0), i8* %118)
  ret i32 0
}

declare dso_local i32 @gets(...) #1

; Function Attrs: nounwind readonly
declare dso_local i64 @strlen(i8*) #2

declare dso_local i32 @printf(i8*, ...) #1


!llvm.module.flags = !{!0}
!llvm.ident = !{!1}

!0 = !{i32 1, !"wchar_size", i32 4}
!1 = !{!"clang version 10.0.0-4ubuntu1 "}
